; Function Attrs: mustprogress uwtable
define hidden noundef i32 @_ZN5zxing9GenericGF7inverseEiRNS_12ErrorHandlerE(ptr noundef nonnull readonly align 8 captures(none) dereferenceable(92) %0, i32 noundef %1, ptr noundef nonnull align 8 dereferenceable(48) %2) local_unnamed_addr #2 align 2 personality ptr @__gxx_personality_v0 {
  %4 = alloca %"class.zxing::IllegalArgumentErrorHandler", align 8
  %5 = icmp eq i32 %1, 0
  br i1 %5, label %6, label %26

6:                                                ; preds = %3
  call void @llvm.lifetime.start.p0(i64 48, ptr nonnull %4) #19
  call void @_ZN5zxing12ErrorHandlerC2EPKc(ptr noundef nonnull align 8 dereferenceable(48) %4, ptr noundef nonnull @.str.2)
  store ptr getelementptr inbounds nuw inrange(-16, 64) (i8, ptr @_ZTVN5zxing27IllegalArgumentErrorHandlerE, i64 16), ptr %4, align 8, !tbaa !8
  %7 = getelementptr inbounds nuw i8, ptr %4, i64 8
  store i32 4, ptr %7, align 8, !tbaa !33
  %8 = invoke noundef nonnull align 8 dereferenceable(48) ptr @_ZN5zxing12ErrorHandleraSERKS0_(ptr noundef nonnull align 8 dereferenceable(48) %2, ptr noundef nonnull align 8 dereferenceable(48) %4)
          to label %9 unwind label %17

9:                                                ; preds = %6
  store ptr getelementptr inbounds nuw inrange(-16, 64) (i8, ptr @_ZTVN5zxing12ErrorHandlerE, i64 16), ptr %4, align 8, !tbaa !8
  %10 = getelementptr inbounds nuw i8, ptr %4, i64 16
  %11 = load ptr, ptr %10, align 8, !tbaa !39
  %12 = getelementptr inbounds nuw i8, ptr %4, i64 32
  %13 = icmp eq ptr %11, %12
  br i1 %13, label %_ZNKSt7__cxx1112basic_stringIcSt11char_traitsIcESaIcEE11_M_is_localEv.exit.thread.i.i.i, label %_ZNKSt7__cxx1112basic_stringIcSt11char_traitsIcESaIcEE11_M_is_localEv.exit.i.i.i

_ZNKSt7__cxx1112basic_stringIcSt11char_traitsIcESaIcEE11_M_is_localEv.exit.thread.i.i.i: ; preds = %9
  %14 = getelementptr inbounds nuw i8, ptr %4, i64 24
  %15 = load i64, ptr %14, align 8, !tbaa !40
  %16 = icmp ult i64 %15, 16
  call void @llvm.assume(i1 %16)
  br label %_ZN5zxing12ErrorHandlerD2Ev.exit

_ZNKSt7__cxx1112basic_stringIcSt11char_traitsIcESaIcEE11_M_is_localEv.exit.i.i.i: ; preds = %9
  call void @_ZdlPv(ptr noundef %11) #20
  br label %_ZN5zxing12ErrorHandlerD2Ev.exit

_ZN5zxing12ErrorHandlerD2Ev.exit:                 ; preds = %_ZNKSt7__cxx1112basic_stringIcSt11char_traitsIcESaIcEE11_M_is_localEv.exit.thread.i.i.i, %_ZNKSt7__cxx1112basic_stringIcSt11char_traitsIcESaIcEE11_M_is_localEv.exit.i.i.i
  call void @llvm.lifetime.end.p0(i64 48, ptr nonnull %4) #19
  br label %41

17:                                               ; preds = %6
  %18 = landingpad { ptr, i32 }
          cleanup
  store ptr getelementptr inbounds nuw inrange(-16, 64) (i8, ptr @_ZTVN5zxing12ErrorHandlerE, i64 16), ptr %4, align 8, !tbaa !8
  %19 = getelementptr inbounds nuw i8, ptr %4, i64 16
  %20 = load ptr, ptr %19, align 8, !tbaa !39
  %21 = getelementptr inbounds nuw i8, ptr %4, i64 32
  %22 = icmp eq ptr %20, %21
  br i1 %22, label %_ZNKSt7__cxx1112basic_stringIcSt11char_traitsIcESaIcEE11_M_is_localEv.exit.thread.i.i.i8, label %_ZNKSt7__cxx1112basic_stringIcSt11char_traitsIcESaIcEE11_M_is_localEv.exit.i.i.i7

_ZNKSt7__cxx1112basic_stringIcSt11char_traitsIcESaIcEE11_M_is_localEv.exit.thread.i.i.i8: ; preds = %17
  %23 = getelementptr inbounds nuw i8, ptr %4, i64 24
  %24 = load i64, ptr %23, align 8, !tbaa !40
  %25 = icmp ult i64 %24, 16
  call void @llvm.assume(i1 %25)
  br label %_ZN5zxing12ErrorHandlerD2Ev.exit9

_ZNKSt7__cxx1112basic_stringIcSt11char_traitsIcESaIcEE11_M_is_localEv.exit.i.i.i7: ; preds = %17
  call void @_ZdlPv(ptr noundef %20) #20
  br label %_ZN5zxing12ErrorHandlerD2Ev.exit9

_ZN5zxing12ErrorHandlerD2Ev.exit9:                ; preds = %_ZNKSt7__cxx1112basic_stringIcSt11char_traitsIcESaIcEE11_M_is_localEv.exit.thread.i.i.i8, %_ZNKSt7__cxx1112basic_stringIcSt11char_traitsIcESaIcEE11_M_is_localEv.exit.i.i.i7
  call void @llvm.lifetime.end.p0(i64 48, ptr nonnull %4) #19
  resume { ptr, i32 } %18

26:                                               ; preds = %3
  %27 = getelementptr inbounds nuw i8, ptr %0, i64 16
  %28 = getelementptr inbounds nuw i8, ptr %0, i64 80
  %29 = load i32, ptr %28, align 8, !tbaa !10
  %30 = getelementptr inbounds nuw i8, ptr %0, i64 40
  %31 = sext i32 %1 to i64
  %32 = load ptr, ptr %30, align 8, !tbaa !23
  %33 = getelementptr inbounds nuw i32, ptr %32, i64 %31
  %34 = load i32, ptr %33, align 4, !tbaa !24
  %35 = xor i32 %34, -1
  %36 = add i32 %29, %35
  %37 = sext i32 %36 to i64
  %38 = load ptr, ptr %27, align 8, !tbaa !23
  %39 = getelementptr inbounds nuw i32, ptr %38, i64 %37
  %40 = load i32, ptr %39, align 4, !tbaa !24
  br label %41

41:                                               ; preds = %26, %_ZN5zxing12ErrorHandlerD2Ev.exit
  %.0 = phi i32 [ -1, %_ZN5zxing12ErrorHandlerD2Ev.exit ], [ %40, %26 ]
  ret i32 %.0
}